
Test_slave_pro_PICO_prvni_pokus.elf:     file format elf32-avr

Sections:
Idx Name          Size      VMA       LMA       File off  Algn
  0 .data         0000001e  00800100  0000064e  000006e2  2**0
                  CONTENTS, ALLOC, LOAD, DATA
  1 .text         0000064e  00000000  00000000  00000094  2**1
                  CONTENTS, ALLOC, LOAD, READONLY, CODE
  2 .bss          0000018d  0080011e  0080011e  00000700  2**0
                  ALLOC
  3 .comment      00000030  00000000  00000000  00000700  2**0
                  CONTENTS, READONLY
  4 .note.gnu.avr.deviceinfo 00000040  00000000  00000000  00000730  2**2
                  CONTENTS, READONLY
  5 .debug_aranges 00000098  00000000  00000000  00000770  2**0
                  CONTENTS, READONLY, DEBUGGING
  6 .debug_info   00000b55  00000000  00000000  00000808  2**0
                  CONTENTS, READONLY, DEBUGGING
  7 .debug_abbrev 000007e0  00000000  00000000  0000135d  2**0
                  CONTENTS, READONLY, DEBUGGING
  8 .debug_line   0000069d  00000000  00000000  00001b3d  2**0
                  CONTENTS, READONLY, DEBUGGING
  9 .debug_frame  00000140  00000000  00000000  000021dc  2**2
                  CONTENTS, READONLY, DEBUGGING
 10 .debug_str    00000555  00000000  00000000  0000231c  2**0
                  CONTENTS, READONLY, DEBUGGING
 11 .debug_loc    00000286  00000000  00000000  00002871  2**0
                  CONTENTS, READONLY, DEBUGGING
 12 .debug_ranges 000000d8  00000000  00000000  00002af7  2**0
                  CONTENTS, READONLY, DEBUGGING

Disassembly of section .text:

00000000 <__vectors>:
   0:	0c 94 34 00 	jmp	0x68	; 0x68 <__ctors_end>
   4:	0c 94 51 00 	jmp	0xa2	; 0xa2 <__bad_interrupt>
   8:	0c 94 51 00 	jmp	0xa2	; 0xa2 <__bad_interrupt>
   c:	0c 94 51 00 	jmp	0xa2	; 0xa2 <__bad_interrupt>
  10:	0c 94 51 00 	jmp	0xa2	; 0xa2 <__bad_interrupt>
  14:	0c 94 51 00 	jmp	0xa2	; 0xa2 <__bad_interrupt>
  18:	0c 94 51 00 	jmp	0xa2	; 0xa2 <__bad_interrupt>
  1c:	0c 94 51 00 	jmp	0xa2	; 0xa2 <__bad_interrupt>
  20:	0c 94 51 00 	jmp	0xa2	; 0xa2 <__bad_interrupt>
  24:	0c 94 51 00 	jmp	0xa2	; 0xa2 <__bad_interrupt>
  28:	0c 94 51 00 	jmp	0xa2	; 0xa2 <__bad_interrupt>
  2c:	0c 94 51 00 	jmp	0xa2	; 0xa2 <__bad_interrupt>
  30:	0c 94 51 00 	jmp	0xa2	; 0xa2 <__bad_interrupt>
  34:	0c 94 51 00 	jmp	0xa2	; 0xa2 <__bad_interrupt>
  38:	0c 94 51 00 	jmp	0xa2	; 0xa2 <__bad_interrupt>
  3c:	0c 94 51 00 	jmp	0xa2	; 0xa2 <__bad_interrupt>
  40:	0c 94 51 00 	jmp	0xa2	; 0xa2 <__bad_interrupt>
  44:	0c 94 51 00 	jmp	0xa2	; 0xa2 <__bad_interrupt>
  48:	0c 94 51 00 	jmp	0xa2	; 0xa2 <__bad_interrupt>
  4c:	0c 94 51 00 	jmp	0xa2	; 0xa2 <__bad_interrupt>
  50:	0c 94 51 00 	jmp	0xa2	; 0xa2 <__bad_interrupt>
  54:	0c 94 51 00 	jmp	0xa2	; 0xa2 <__bad_interrupt>
  58:	0c 94 51 00 	jmp	0xa2	; 0xa2 <__bad_interrupt>
  5c:	0c 94 51 00 	jmp	0xa2	; 0xa2 <__bad_interrupt>
  60:	0c 94 65 00 	jmp	0xca	; 0xca <__vector_24>
  64:	0c 94 51 00 	jmp	0xa2	; 0xa2 <__bad_interrupt>

00000068 <__ctors_end>:
  68:	11 24       	eor	r1, r1
  6a:	1f be       	out	0x3f, r1	; 63
  6c:	cf ef       	ldi	r28, 0xFF	; 255
  6e:	d8 e0       	ldi	r29, 0x08	; 8
  70:	de bf       	out	0x3e, r29	; 62
  72:	cd bf       	out	0x3d, r28	; 61

00000074 <__do_copy_data>:
  74:	11 e0       	ldi	r17, 0x01	; 1
  76:	a0 e0       	ldi	r26, 0x00	; 0
  78:	b1 e0       	ldi	r27, 0x01	; 1
  7a:	ee e4       	ldi	r30, 0x4E	; 78
  7c:	f6 e0       	ldi	r31, 0x06	; 6
  7e:	02 c0       	rjmp	.+4      	; 0x84 <__do_copy_data+0x10>
  80:	05 90       	lpm	r0, Z+
  82:	0d 92       	st	X+, r0
  84:	ae 31       	cpi	r26, 0x1E	; 30
  86:	b1 07       	cpc	r27, r17
  88:	d9 f7       	brne	.-10     	; 0x80 <__do_copy_data+0xc>

0000008a <__do_clear_bss>:
  8a:	22 e0       	ldi	r18, 0x02	; 2
  8c:	ae e1       	ldi	r26, 0x1E	; 30
  8e:	b1 e0       	ldi	r27, 0x01	; 1
  90:	01 c0       	rjmp	.+2      	; 0x94 <.do_clear_bss_start>

00000092 <.do_clear_bss_loop>:
  92:	1d 92       	st	X+, r1

00000094 <.do_clear_bss_start>:
  94:	ab 3a       	cpi	r26, 0xAB	; 171
  96:	b2 07       	cpc	r27, r18
  98:	e1 f7       	brne	.-8      	; 0x92 <.do_clear_bss_loop>
  9a:	0e 94 10 03 	call	0x620	; 0x620 <main>
  9e:	0c 94 25 03 	jmp	0x64a	; 0x64a <_exit>

000000a2 <__bad_interrupt>:
  a2:	0c 94 00 00 	jmp	0	; 0x0 <__vectors>

000000a6 <I2C_setCallbacks>:
  a6:	90 93 21 01 	sts	0x0121, r25	; 0x800121 <I2C_recv+0x1>
  aa:	80 93 20 01 	sts	0x0120, r24	; 0x800120 <I2C_recv>
  ae:	70 93 1f 01 	sts	0x011F, r23	; 0x80011f <__data_end+0x1>
  b2:	60 93 1e 01 	sts	0x011E, r22	; 0x80011e <__data_end>
  b6:	08 95       	ret

000000b8 <I2C_init>:
  b8:	f8 94       	cli
  ba:	88 0f       	add	r24, r24
  bc:	80 93 ba 00 	sts	0x00BA, r24	; 0x8000ba <__TEXT_REGION_LENGTH__+0x7f80ba>
  c0:	85 ec       	ldi	r24, 0xC5	; 197
  c2:	80 93 bc 00 	sts	0x00BC, r24	; 0x8000bc <__TEXT_REGION_LENGTH__+0x7f80bc>
  c6:	78 94       	sei
  c8:	08 95       	ret

000000ca <__vector_24>:
  ca:	1f 92       	push	r1
  cc:	0f 92       	push	r0
  ce:	0f b6       	in	r0, 0x3f	; 63
  d0:	0f 92       	push	r0
  d2:	11 24       	eor	r1, r1
  d4:	2f 93       	push	r18
  d6:	3f 93       	push	r19
  d8:	4f 93       	push	r20
  da:	5f 93       	push	r21
  dc:	6f 93       	push	r22
  de:	7f 93       	push	r23
  e0:	8f 93       	push	r24
  e2:	9f 93       	push	r25
  e4:	af 93       	push	r26
  e6:	bf 93       	push	r27
  e8:	ef 93       	push	r30
  ea:	ff 93       	push	r31
  ec:	80 91 b9 00 	lds	r24, 0x00B9	; 0x8000b9 <__TEXT_REGION_LENGTH__+0x7f80b9>
  f0:	88 7f       	andi	r24, 0xF8	; 248
  f2:	80 38       	cpi	r24, 0x80	; 128
  f4:	49 f0       	breq	.+18     	; 0x108 <__vector_24+0x3e>
  f6:	18 f4       	brcc	.+6      	; 0xfe <__vector_24+0x34>
  f8:	88 23       	and	r24, r24
  fa:	19 f1       	breq	.+70     	; 0x142 <__vector_24+0x78>
  fc:	28 c0       	rjmp	.+80     	; 0x14e <__vector_24+0x84>
  fe:	88 3a       	cpi	r24, 0xA8	; 168
 100:	71 f0       	breq	.+28     	; 0x11e <__vector_24+0x54>
 102:	88 3b       	cpi	r24, 0xB8	; 184
 104:	a9 f0       	breq	.+42     	; 0x130 <__vector_24+0x66>
 106:	23 c0       	rjmp	.+70     	; 0x14e <__vector_24+0x84>
 108:	80 91 bb 00 	lds	r24, 0x00BB	; 0x8000bb <__TEXT_REGION_LENGTH__+0x7f80bb>
 10c:	e0 91 20 01 	lds	r30, 0x0120	; 0x800120 <I2C_recv>
 110:	f0 91 21 01 	lds	r31, 0x0121	; 0x800121 <I2C_recv+0x1>
 114:	09 95       	icall
 116:	85 ec       	ldi	r24, 0xC5	; 197
 118:	80 93 bc 00 	sts	0x00BC, r24	; 0x8000bc <__TEXT_REGION_LENGTH__+0x7f80bc>
 11c:	1b c0       	rjmp	.+54     	; 0x154 <__vector_24+0x8a>
 11e:	e0 91 1e 01 	lds	r30, 0x011E	; 0x80011e <__data_end>
 122:	f0 91 1f 01 	lds	r31, 0x011F	; 0x80011f <__data_end+0x1>
 126:	09 95       	icall
 128:	85 ec       	ldi	r24, 0xC5	; 197
 12a:	80 93 bc 00 	sts	0x00BC, r24	; 0x8000bc <__TEXT_REGION_LENGTH__+0x7f80bc>
 12e:	12 c0       	rjmp	.+36     	; 0x154 <__vector_24+0x8a>
 130:	e0 91 1e 01 	lds	r30, 0x011E	; 0x80011e <__data_end>
 134:	f0 91 1f 01 	lds	r31, 0x011F	; 0x80011f <__data_end+0x1>
 138:	09 95       	icall
 13a:	85 ec       	ldi	r24, 0xC5	; 197
 13c:	80 93 bc 00 	sts	0x00BC, r24	; 0x8000bc <__TEXT_REGION_LENGTH__+0x7f80bc>
 140:	09 c0       	rjmp	.+18     	; 0x154 <__vector_24+0x8a>
 142:	ec eb       	ldi	r30, 0xBC	; 188
 144:	f0 e0       	ldi	r31, 0x00	; 0
 146:	10 82       	st	Z, r1
 148:	85 ec       	ldi	r24, 0xC5	; 197
 14a:	80 83       	st	Z, r24
 14c:	03 c0       	rjmp	.+6      	; 0x154 <__vector_24+0x8a>
 14e:	85 ec       	ldi	r24, 0xC5	; 197
 150:	80 93 bc 00 	sts	0x00BC, r24	; 0x8000bc <__TEXT_REGION_LENGTH__+0x7f80bc>
 154:	ff 91       	pop	r31
 156:	ef 91       	pop	r30
 158:	bf 91       	pop	r27
 15a:	af 91       	pop	r26
 15c:	9f 91       	pop	r25
 15e:	8f 91       	pop	r24
 160:	7f 91       	pop	r23
 162:	6f 91       	pop	r22
 164:	5f 91       	pop	r21
 166:	4f 91       	pop	r20
 168:	3f 91       	pop	r19
 16a:	2f 91       	pop	r18
 16c:	0f 90       	pop	r0
 16e:	0f be       	out	0x3f, r0	; 63
 170:	0f 90       	pop	r0
 172:	1f 90       	pop	r1
 174:	18 95       	reti

00000176 <I2C_received>:
int Pocitadlo_prijmu_barvy = 0;
int Rezim = 1;

void I2C_received(uint8_t received_data)
{
	data = received_data;
 176:	80 93 2a 01 	sts	0x012A, r24	; 0x80012a <data>
		
	if (Rezim == 0)
 17a:	80 91 00 01 	lds	r24, 0x0100	; 0x800100 <__DATA_REGION_ORIGIN__>
 17e:	90 91 01 01 	lds	r25, 0x0101	; 0x800101 <__DATA_REGION_ORIGIN__+0x1>
 182:	00 97       	sbiw	r24, 0x00	; 0
 184:	49 f1       	breq	.+82     	; 0x1d8 <I2C_received+0x62>
 186:	3e c0       	rjmp	.+124    	; 0x204 <I2C_received+0x8e>
	{
		for(int i = 0; i < 8; i++){
			Buffer[Pocitadlo_prijmu_radky][i][0] = (data >> 7 - i) & 1;
 188:	60 91 24 01 	lds	r22, 0x0124	; 0x800124 <Pocitadlo_prijmu_radky>
 18c:	70 91 25 01 	lds	r23, 0x0125	; 0x800125 <Pocitadlo_prijmu_radky+0x1>
 190:	80 91 2a 01 	lds	r24, 0x012A	; 0x80012a <data>
 194:	47 e0       	ldi	r20, 0x07	; 7
 196:	50 e0       	ldi	r21, 0x00	; 0
 198:	42 1b       	sub	r20, r18
 19a:	53 0b       	sbc	r21, r19
 19c:	90 e0       	ldi	r25, 0x00	; 0
 19e:	02 c0       	rjmp	.+4      	; 0x1a4 <I2C_received+0x2e>
 1a0:	95 95       	asr	r25
 1a2:	87 95       	ror	r24
 1a4:	4a 95       	dec	r20
 1a6:	e2 f7       	brpl	.-8      	; 0x1a0 <I2C_received+0x2a>
 1a8:	81 70       	andi	r24, 0x01	; 1
 1aa:	99 27       	eor	r25, r25
 1ac:	f9 01       	movw	r30, r18
 1ae:	ee 0f       	add	r30, r30
 1b0:	ff 1f       	adc	r31, r31
 1b2:	e2 0f       	add	r30, r18
 1b4:	f3 1f       	adc	r31, r19
 1b6:	ee 0f       	add	r30, r30
 1b8:	ff 1f       	adc	r31, r31
 1ba:	a0 e3       	ldi	r26, 0x30	; 48
 1bc:	a6 9f       	mul	r26, r22
 1be:	a0 01       	movw	r20, r0
 1c0:	a7 9f       	mul	r26, r23
 1c2:	50 0d       	add	r21, r0
 1c4:	11 24       	eor	r1, r1
 1c6:	e4 0f       	add	r30, r20
 1c8:	f5 1f       	adc	r31, r21
 1ca:	e5 5d       	subi	r30, 0xD5	; 213
 1cc:	fe 4f       	sbci	r31, 0xFE	; 254
 1ce:	91 83       	std	Z+1, r25	; 0x01
 1d0:	80 83       	st	Z, r24
{
	data = received_data;
		
	if (Rezim == 0)
	{
		for(int i = 0; i < 8; i++){
 1d2:	2f 5f       	subi	r18, 0xFF	; 255
 1d4:	3f 4f       	sbci	r19, 0xFF	; 255
 1d6:	02 c0       	rjmp	.+4      	; 0x1dc <I2C_received+0x66>
 1d8:	20 e0       	ldi	r18, 0x00	; 0
 1da:	30 e0       	ldi	r19, 0x00	; 0
 1dc:	28 30       	cpi	r18, 0x08	; 8
 1de:	31 05       	cpc	r19, r1
 1e0:	9c f2       	brlt	.-90     	; 0x188 <I2C_received+0x12>
			Buffer[Pocitadlo_prijmu_radky][i][0] = (data >> 7 - i) & 1;
		}
		Pocitadlo_prijmu_radky++;
 1e2:	80 91 24 01 	lds	r24, 0x0124	; 0x800124 <Pocitadlo_prijmu_radky>
 1e6:	90 91 25 01 	lds	r25, 0x0125	; 0x800125 <Pocitadlo_prijmu_radky+0x1>
 1ea:	01 96       	adiw	r24, 0x01	; 1
 1ec:	90 93 25 01 	sts	0x0125, r25	; 0x800125 <Pocitadlo_prijmu_radky+0x1>
 1f0:	80 93 24 01 	sts	0x0124, r24	; 0x800124 <Pocitadlo_prijmu_radky>
		if (Pocitadlo_prijmu_radky == 8) Pocitadlo_prijmu_radky = 0;
 1f4:	08 97       	sbiw	r24, 0x08	; 8
 1f6:	09 f0       	breq	.+2      	; 0x1fa <I2C_received+0x84>
 1f8:	61 c0       	rjmp	.+194    	; 0x2bc <I2C_received+0x146>
 1fa:	10 92 25 01 	sts	0x0125, r1	; 0x800125 <Pocitadlo_prijmu_radky+0x1>
 1fe:	10 92 24 01 	sts	0x0124, r1	; 0x800124 <Pocitadlo_prijmu_radky>
 202:	08 95       	ret
	}
	else if (Rezim == 1){
 204:	01 97       	sbiw	r24, 0x01	; 1
 206:	09 f0       	breq	.+2      	; 0x20a <I2C_received+0x94>
 208:	59 c0       	rjmp	.+178    	; 0x2bc <I2C_received+0x146>
 20a:	35 c0       	rjmp	.+106    	; 0x276 <I2C_received+0x100>
		for(int i = 0; i < 8; i++){
			Buffer[Pocitadlo_prijmu_radky][i][Pocitadlo_prijmu_barvy] = (data >> 7 - i) & 1;
 20c:	80 91 24 01 	lds	r24, 0x0124	; 0x800124 <Pocitadlo_prijmu_radky>
 210:	90 91 25 01 	lds	r25, 0x0125	; 0x800125 <Pocitadlo_prijmu_radky+0x1>
 214:	e0 91 22 01 	lds	r30, 0x0122	; 0x800122 <Pocitadlo_prijmu_barvy>
 218:	f0 91 23 01 	lds	r31, 0x0123	; 0x800123 <Pocitadlo_prijmu_barvy+0x1>
 21c:	40 91 2a 01 	lds	r20, 0x012A	; 0x80012a <data>
 220:	27 e0       	ldi	r18, 0x07	; 7
 222:	30 e0       	ldi	r19, 0x00	; 0
 224:	26 1b       	sub	r18, r22
 226:	37 0b       	sbc	r19, r23
 228:	50 e0       	ldi	r21, 0x00	; 0
 22a:	02 c0       	rjmp	.+4      	; 0x230 <I2C_received+0xba>
 22c:	55 95       	asr	r21
 22e:	47 95       	ror	r20
 230:	2a 95       	dec	r18
 232:	e2 f7       	brpl	.-8      	; 0x22c <I2C_received+0xb6>
 234:	41 70       	andi	r20, 0x01	; 1
 236:	55 27       	eor	r21, r21
 238:	db 01       	movw	r26, r22
 23a:	aa 0f       	add	r26, r26
 23c:	bb 1f       	adc	r27, r27
 23e:	a6 0f       	add	r26, r22
 240:	b7 1f       	adc	r27, r23
 242:	9c 01       	movw	r18, r24
 244:	22 0f       	add	r18, r18
 246:	33 1f       	adc	r19, r19
 248:	82 0f       	add	r24, r18
 24a:	93 1f       	adc	r25, r19
 24c:	9c 01       	movw	r18, r24
 24e:	22 0f       	add	r18, r18
 250:	33 1f       	adc	r19, r19
 252:	22 0f       	add	r18, r18
 254:	33 1f       	adc	r19, r19
 256:	22 0f       	add	r18, r18
 258:	33 1f       	adc	r19, r19
 25a:	cd 01       	movw	r24, r26
 25c:	82 0f       	add	r24, r18
 25e:	93 1f       	adc	r25, r19
 260:	e8 0f       	add	r30, r24
 262:	f9 1f       	adc	r31, r25
 264:	ee 0f       	add	r30, r30
 266:	ff 1f       	adc	r31, r31
 268:	e5 5d       	subi	r30, 0xD5	; 213
 26a:	fe 4f       	sbci	r31, 0xFE	; 254
 26c:	51 83       	std	Z+1, r21	; 0x01
 26e:	40 83       	st	Z, r20
		}
		Pocitadlo_prijmu_radky++;
		if (Pocitadlo_prijmu_radky == 8) Pocitadlo_prijmu_radky = 0;
	}
	else if (Rezim == 1){
		for(int i = 0; i < 8; i++){
 270:	6f 5f       	subi	r22, 0xFF	; 255
 272:	7f 4f       	sbci	r23, 0xFF	; 255
 274:	02 c0       	rjmp	.+4      	; 0x27a <I2C_received+0x104>
 276:	60 e0       	ldi	r22, 0x00	; 0
 278:	70 e0       	ldi	r23, 0x00	; 0
 27a:	68 30       	cpi	r22, 0x08	; 8
 27c:	71 05       	cpc	r23, r1
 27e:	34 f2       	brlt	.-116    	; 0x20c <I2C_received+0x96>
			Buffer[Pocitadlo_prijmu_radky][i][Pocitadlo_prijmu_barvy] = (data >> 7 - i) & 1;
		}
		Pocitadlo_prijmu_barvy++;
 280:	80 91 22 01 	lds	r24, 0x0122	; 0x800122 <Pocitadlo_prijmu_barvy>
 284:	90 91 23 01 	lds	r25, 0x0123	; 0x800123 <Pocitadlo_prijmu_barvy+0x1>
 288:	01 96       	adiw	r24, 0x01	; 1
 28a:	90 93 23 01 	sts	0x0123, r25	; 0x800123 <Pocitadlo_prijmu_barvy+0x1>
 28e:	80 93 22 01 	sts	0x0122, r24	; 0x800122 <Pocitadlo_prijmu_barvy>
		if (Pocitadlo_prijmu_barvy == 3){
 292:	03 97       	sbiw	r24, 0x03	; 3
 294:	99 f4       	brne	.+38     	; 0x2bc <I2C_received+0x146>
			Pocitadlo_prijmu_barvy = 0;
 296:	10 92 23 01 	sts	0x0123, r1	; 0x800123 <Pocitadlo_prijmu_barvy+0x1>
 29a:	10 92 22 01 	sts	0x0122, r1	; 0x800122 <Pocitadlo_prijmu_barvy>
			Pocitadlo_prijmu_radky++;
 29e:	80 91 24 01 	lds	r24, 0x0124	; 0x800124 <Pocitadlo_prijmu_radky>
 2a2:	90 91 25 01 	lds	r25, 0x0125	; 0x800125 <Pocitadlo_prijmu_radky+0x1>
 2a6:	01 96       	adiw	r24, 0x01	; 1
 2a8:	90 93 25 01 	sts	0x0125, r25	; 0x800125 <Pocitadlo_prijmu_radky+0x1>
 2ac:	80 93 24 01 	sts	0x0124, r24	; 0x800124 <Pocitadlo_prijmu_radky>
			if (Pocitadlo_prijmu_radky == 8) Pocitadlo_prijmu_radky = 0;
 2b0:	08 97       	sbiw	r24, 0x08	; 8
 2b2:	21 f4       	brne	.+8      	; 0x2bc <I2C_received+0x146>
 2b4:	10 92 25 01 	sts	0x0125, r1	; 0x800125 <Pocitadlo_prijmu_radky+0x1>
 2b8:	10 92 24 01 	sts	0x0124, r1	; 0x800124 <Pocitadlo_prijmu_radky>
 2bc:	08 95       	ret

000002be <I2C_requested>:
		}
	}
}

void I2C_requested()
{
 2be:	08 95       	ret

000002c0 <InicializaceRegistru>:
}

void InicializaceRegistru()
{
	// Vyclearování všech registrù pøi novém zapnutí
	for(int i = 0; i < 8; i++)
 2c0:	20 e0       	ldi	r18, 0x00	; 0
 2c2:	30 e0       	ldi	r19, 0x00	; 0
 2c4:	12 c0       	rjmp	.+36     	; 0x2ea <InicializaceRegistru+0x2a>
	{
		PORTD |= 1 << Radky[i];
 2c6:	4b b1       	in	r20, 0x0b	; 11
 2c8:	f9 01       	movw	r30, r18
 2ca:	ee 0f       	add	r30, r30
 2cc:	ff 1f       	adc	r31, r31
 2ce:	e8 5f       	subi	r30, 0xF8	; 248
 2d0:	fe 4f       	sbci	r31, 0xFE	; 254
 2d2:	81 e0       	ldi	r24, 0x01	; 1
 2d4:	90 e0       	ldi	r25, 0x00	; 0
 2d6:	00 80       	ld	r0, Z
 2d8:	02 c0       	rjmp	.+4      	; 0x2de <InicializaceRegistru+0x1e>
 2da:	88 0f       	add	r24, r24
 2dc:	99 1f       	adc	r25, r25
 2de:	0a 94       	dec	r0
 2e0:	e2 f7       	brpl	.-8      	; 0x2da <InicializaceRegistru+0x1a>
 2e2:	84 2b       	or	r24, r20
 2e4:	8b b9       	out	0x0b, r24	; 11
}

void InicializaceRegistru()
{
	// Vyclearování všech registrù pøi novém zapnutí
	for(int i = 0; i < 8; i++)
 2e6:	2f 5f       	subi	r18, 0xFF	; 255
 2e8:	3f 4f       	sbci	r19, 0xFF	; 255
 2ea:	28 30       	cpi	r18, 0x08	; 8
 2ec:	31 05       	cpc	r19, r1
 2ee:	5c f3       	brlt	.-42     	; 0x2c6 <InicializaceRegistru+0x6>
	{
		PORTD |= 1 << Radky[i];
	}

	PORTB &= 255 - (1 << ClearRegistru);
 2f0:	35 b1       	in	r19, 0x05	; 5
 2f2:	e6 e0       	ldi	r30, 0x06	; 6
 2f4:	f1 e0       	ldi	r31, 0x01	; 1
 2f6:	81 e0       	ldi	r24, 0x01	; 1
 2f8:	90 e0       	ldi	r25, 0x00	; 0
 2fa:	ac 01       	movw	r20, r24
 2fc:	00 80       	ld	r0, Z
 2fe:	02 c0       	rjmp	.+4      	; 0x304 <InicializaceRegistru+0x44>
 300:	44 0f       	add	r20, r20
 302:	55 1f       	adc	r21, r21
 304:	0a 94       	dec	r0
 306:	e2 f7       	brpl	.-8      	; 0x300 <InicializaceRegistru+0x40>
 308:	24 2f       	mov	r18, r20
 30a:	20 95       	com	r18
 30c:	23 23       	and	r18, r19
 30e:	25 b9       	out	0x05, r18	; 5
	PORTB |= 1 << ClearRegistru;
 310:	25 b1       	in	r18, 0x05	; 5
 312:	00 80       	ld	r0, Z
 314:	02 c0       	rjmp	.+4      	; 0x31a <InicializaceRegistru+0x5a>
 316:	88 0f       	add	r24, r24
 318:	99 1f       	adc	r25, r25
 31a:	0a 94       	dec	r0
 31c:	e2 f7       	brpl	.-8      	; 0x316 <InicializaceRegistru+0x56>
 31e:	82 2b       	or	r24, r18
 320:	85 b9       	out	0x05, r24	; 5

	// Zhasnutí všeho (na stranì registrù)
	for(int i = 0; i < 3; i++)
 322:	20 e0       	ldi	r18, 0x00	; 0
 324:	30 e0       	ldi	r19, 0x00	; 0
 326:	12 c0       	rjmp	.+36     	; 0x34c <InicializaceRegistru+0x8c>
	{
		PORTB |= 1 << VstupyRegistru[i];
 328:	45 b1       	in	r20, 0x05	; 5
 32a:	f9 01       	movw	r30, r18
 32c:	ee 0f       	add	r30, r30
 32e:	ff 1f       	adc	r31, r31
 330:	e8 5e       	subi	r30, 0xE8	; 232
 332:	fe 4f       	sbci	r31, 0xFE	; 254
 334:	81 e0       	ldi	r24, 0x01	; 1
 336:	90 e0       	ldi	r25, 0x00	; 0
 338:	00 80       	ld	r0, Z
 33a:	02 c0       	rjmp	.+4      	; 0x340 <InicializaceRegistru+0x80>
 33c:	88 0f       	add	r24, r24
 33e:	99 1f       	adc	r25, r25
 340:	0a 94       	dec	r0
 342:	e2 f7       	brpl	.-8      	; 0x33c <InicializaceRegistru+0x7c>
 344:	84 2b       	or	r24, r20
 346:	85 b9       	out	0x05, r24	; 5

	PORTB &= 255 - (1 << ClearRegistru);
	PORTB |= 1 << ClearRegistru;

	// Zhasnutí všeho (na stranì registrù)
	for(int i = 0; i < 3; i++)
 348:	2f 5f       	subi	r18, 0xFF	; 255
 34a:	3f 4f       	sbci	r19, 0xFF	; 255
 34c:	23 30       	cpi	r18, 0x03	; 3
 34e:	31 05       	cpc	r19, r1
 350:	5c f3       	brlt	.-42     	; 0x328 <InicializaceRegistru+0x68>
 352:	40 e0       	ldi	r20, 0x00	; 0
 354:	50 e0       	ldi	r21, 0x00	; 0
 356:	1a c0       	rjmp	.+52     	; 0x38c <InicializaceRegistru+0xcc>
		PORTB |= 1 << VstupyRegistru[i];
	}

	for(int i = 0; i < 8; i++)
	{
		PORTB |= 1 << HodinyRegistru;
 358:	65 b1       	in	r22, 0x05	; 5
 35a:	e8 e2       	ldi	r30, 0x28	; 40
 35c:	f1 e0       	ldi	r31, 0x01	; 1
 35e:	81 e0       	ldi	r24, 0x01	; 1
 360:	90 e0       	ldi	r25, 0x00	; 0
 362:	9c 01       	movw	r18, r24
 364:	00 80       	ld	r0, Z
 366:	02 c0       	rjmp	.+4      	; 0x36c <InicializaceRegistru+0xac>
 368:	22 0f       	add	r18, r18
 36a:	33 1f       	adc	r19, r19
 36c:	0a 94       	dec	r0
 36e:	e2 f7       	brpl	.-8      	; 0x368 <InicializaceRegistru+0xa8>
 370:	26 2b       	or	r18, r22
 372:	25 b9       	out	0x05, r18	; 5
		PORTB &= 255 - (1 << HodinyRegistru);
 374:	25 b1       	in	r18, 0x05	; 5
 376:	00 80       	ld	r0, Z
 378:	02 c0       	rjmp	.+4      	; 0x37e <InicializaceRegistru+0xbe>
 37a:	88 0f       	add	r24, r24
 37c:	99 1f       	adc	r25, r25
 37e:	0a 94       	dec	r0
 380:	e2 f7       	brpl	.-8      	; 0x37a <InicializaceRegistru+0xba>
 382:	80 95       	com	r24
 384:	82 23       	and	r24, r18
 386:	85 b9       	out	0x05, r24	; 5
	for(int i = 0; i < 3; i++)
	{
		PORTB |= 1 << VstupyRegistru[i];
	}

	for(int i = 0; i < 8; i++)
 388:	4f 5f       	subi	r20, 0xFF	; 255
 38a:	5f 4f       	sbci	r21, 0xFF	; 255
 38c:	48 30       	cpi	r20, 0x08	; 8
 38e:	51 05       	cpc	r21, r1
 390:	1c f3       	brlt	.-58     	; 0x358 <InicializaceRegistru+0x98>
	PORTC &= 255 - (1 << VstupyRegistru[0]);
	PORTC |= 1 << HodinyRegistru;
	PORTC &= 255 - (1 << HodinyRegistru);
	PORTC|= 1 << VstupyRegistru[0];
	*/
}
 392:	08 95       	ret

00000394 <VynulovaniBufferu>:

void VynulovaniBufferu()
{
	for (int i = 0; i < 8; i++)
 394:	60 e0       	ldi	r22, 0x00	; 0
 396:	70 e0       	ldi	r23, 0x00	; 0
 398:	2e c0       	rjmp	.+92     	; 0x3f6 <VynulovaniBufferu+0x62>
	{
		for (int j = 0; j < 8; j++)
		{
			for (int k = 0; k < 3; k++)
			{
				Buffer[i][j][k] = 0;
 39a:	fa 01       	movw	r30, r20
 39c:	ee 0f       	add	r30, r30
 39e:	ff 1f       	adc	r31, r31
 3a0:	df 01       	movw	r26, r30
 3a2:	a4 0f       	add	r26, r20
 3a4:	b5 1f       	adc	r27, r21
 3a6:	cb 01       	movw	r24, r22
 3a8:	88 0f       	add	r24, r24
 3aa:	99 1f       	adc	r25, r25
 3ac:	fc 01       	movw	r30, r24
 3ae:	e6 0f       	add	r30, r22
 3b0:	f7 1f       	adc	r31, r23
 3b2:	ee 0f       	add	r30, r30
 3b4:	ff 1f       	adc	r31, r31
 3b6:	ee 0f       	add	r30, r30
 3b8:	ff 1f       	adc	r31, r31
 3ba:	ee 0f       	add	r30, r30
 3bc:	ff 1f       	adc	r31, r31
 3be:	ea 0f       	add	r30, r26
 3c0:	fb 1f       	adc	r31, r27
 3c2:	e2 0f       	add	r30, r18
 3c4:	f3 1f       	adc	r31, r19
 3c6:	ee 0f       	add	r30, r30
 3c8:	ff 1f       	adc	r31, r31
 3ca:	e5 5d       	subi	r30, 0xD5	; 213
 3cc:	fe 4f       	sbci	r31, 0xFE	; 254
 3ce:	11 82       	std	Z+1, r1	; 0x01
 3d0:	10 82       	st	Z, r1
{
	for (int i = 0; i < 8; i++)
	{
		for (int j = 0; j < 8; j++)
		{
			for (int k = 0; k < 3; k++)
 3d2:	2f 5f       	subi	r18, 0xFF	; 255
 3d4:	3f 4f       	sbci	r19, 0xFF	; 255
 3d6:	02 c0       	rjmp	.+4      	; 0x3dc <VynulovaniBufferu+0x48>
 3d8:	20 e0       	ldi	r18, 0x00	; 0
 3da:	30 e0       	ldi	r19, 0x00	; 0
 3dc:	23 30       	cpi	r18, 0x03	; 3
 3de:	31 05       	cpc	r19, r1
 3e0:	e4 f2       	brlt	.-72     	; 0x39a <VynulovaniBufferu+0x6>

void VynulovaniBufferu()
{
	for (int i = 0; i < 8; i++)
	{
		for (int j = 0; j < 8; j++)
 3e2:	4f 5f       	subi	r20, 0xFF	; 255
 3e4:	5f 4f       	sbci	r21, 0xFF	; 255
 3e6:	02 c0       	rjmp	.+4      	; 0x3ec <VynulovaniBufferu+0x58>
 3e8:	40 e0       	ldi	r20, 0x00	; 0
 3ea:	50 e0       	ldi	r21, 0x00	; 0
 3ec:	48 30       	cpi	r20, 0x08	; 8
 3ee:	51 05       	cpc	r21, r1
 3f0:	9c f3       	brlt	.-26     	; 0x3d8 <VynulovaniBufferu+0x44>
	*/
}

void VynulovaniBufferu()
{
	for (int i = 0; i < 8; i++)
 3f2:	6f 5f       	subi	r22, 0xFF	; 255
 3f4:	7f 4f       	sbci	r23, 0xFF	; 255
 3f6:	68 30       	cpi	r22, 0x08	; 8
 3f8:	71 05       	cpc	r23, r1
 3fa:	b4 f3       	brlt	.-20     	; 0x3e8 <VynulovaniBufferu+0x54>
			{
				Buffer[i][j][k] = 0;
			}
		}
	}
}
 3fc:	08 95       	ret

000003fe <PosunRegistru>:

void PosunRegistru()
{
	// Do registrù se pošle 0 (rozsvícení) je-li správá chvíle
	if (KontinuitaRegistru == 7)
 3fe:	80 91 26 01 	lds	r24, 0x0126	; 0x800126 <KontinuitaRegistru>
 402:	90 91 27 01 	lds	r25, 0x0127	; 0x800127 <KontinuitaRegistru+0x1>
 406:	87 30       	cpi	r24, 0x07	; 7
 408:	91 05       	cpc	r25, r1
 40a:	71 f4       	brne	.+28     	; 0x428 <__EEPROM_REGION_LENGTH__+0x28>
	{
		PORTB &= 255 - (1 << VstupyRegistru[0]);
 40c:	25 b1       	in	r18, 0x05	; 5
 40e:	81 e0       	ldi	r24, 0x01	; 1
 410:	90 e0       	ldi	r25, 0x00	; 0
 412:	00 90 18 01 	lds	r0, 0x0118	; 0x800118 <VstupyRegistru>
 416:	02 c0       	rjmp	.+4      	; 0x41c <__EEPROM_REGION_LENGTH__+0x1c>
 418:	88 0f       	add	r24, r24
 41a:	99 1f       	adc	r25, r25
 41c:	0a 94       	dec	r0
 41e:	e2 f7       	brpl	.-8      	; 0x418 <__EEPROM_REGION_LENGTH__+0x18>
 420:	80 95       	com	r24
 422:	82 23       	and	r24, r18
 424:	85 b9       	out	0x05, r24	; 5
 426:	20 c0       	rjmp	.+64     	; 0x468 <__EEPROM_REGION_LENGTH__+0x68>
	}
	else if (KontinuitaRegistru == 15)
 428:	8f 30       	cpi	r24, 0x0F	; 15
 42a:	91 05       	cpc	r25, r1
 42c:	71 f4       	brne	.+28     	; 0x44a <__EEPROM_REGION_LENGTH__+0x4a>
	{
		PORTB &= 255 - (1 << VstupyRegistru[1]);
 42e:	25 b1       	in	r18, 0x05	; 5
 430:	81 e0       	ldi	r24, 0x01	; 1
 432:	90 e0       	ldi	r25, 0x00	; 0
 434:	00 90 1a 01 	lds	r0, 0x011A	; 0x80011a <VstupyRegistru+0x2>
 438:	02 c0       	rjmp	.+4      	; 0x43e <__EEPROM_REGION_LENGTH__+0x3e>
 43a:	88 0f       	add	r24, r24
 43c:	99 1f       	adc	r25, r25
 43e:	0a 94       	dec	r0
 440:	e2 f7       	brpl	.-8      	; 0x43a <__EEPROM_REGION_LENGTH__+0x3a>
 442:	80 95       	com	r24
 444:	82 23       	and	r24, r18
 446:	85 b9       	out	0x05, r24	; 5
 448:	0f c0       	rjmp	.+30     	; 0x468 <__EEPROM_REGION_LENGTH__+0x68>
	}
	else if (KontinuitaRegistru == 23)
 44a:	47 97       	sbiw	r24, 0x17	; 23
 44c:	69 f4       	brne	.+26     	; 0x468 <__EEPROM_REGION_LENGTH__+0x68>
	{
		PORTB &= 255 - (1 << VstupyRegistru[2]);
 44e:	25 b1       	in	r18, 0x05	; 5
 450:	81 e0       	ldi	r24, 0x01	; 1
 452:	90 e0       	ldi	r25, 0x00	; 0
 454:	00 90 1c 01 	lds	r0, 0x011C	; 0x80011c <VstupyRegistru+0x4>
 458:	02 c0       	rjmp	.+4      	; 0x45e <__EEPROM_REGION_LENGTH__+0x5e>
 45a:	88 0f       	add	r24, r24
 45c:	99 1f       	adc	r25, r25
 45e:	0a 94       	dec	r0
 460:	e2 f7       	brpl	.-8      	; 0x45a <__EEPROM_REGION_LENGTH__+0x5a>
 462:	80 95       	com	r24
 464:	82 23       	and	r24, r18
 466:	85 b9       	out	0x05, r24	; 5
	}
	
	// Hodiny posunou registr
	PORTB |= 1 << HodinyRegistru;
 468:	45 b1       	in	r20, 0x05	; 5
 46a:	e8 e2       	ldi	r30, 0x28	; 40
 46c:	f1 e0       	ldi	r31, 0x01	; 1
 46e:	81 e0       	ldi	r24, 0x01	; 1
 470:	90 e0       	ldi	r25, 0x00	; 0
 472:	9c 01       	movw	r18, r24
 474:	00 80       	ld	r0, Z
 476:	02 c0       	rjmp	.+4      	; 0x47c <__EEPROM_REGION_LENGTH__+0x7c>
 478:	22 0f       	add	r18, r18
 47a:	33 1f       	adc	r19, r19
 47c:	0a 94       	dec	r0
 47e:	e2 f7       	brpl	.-8      	; 0x478 <__EEPROM_REGION_LENGTH__+0x78>
 480:	24 2b       	or	r18, r20
 482:	25 b9       	out	0x05, r18	; 5
	PORTB &= 255 - (1 << HodinyRegistru);
 484:	25 b1       	in	r18, 0x05	; 5
 486:	00 80       	ld	r0, Z
 488:	02 c0       	rjmp	.+4      	; 0x48e <__EEPROM_REGION_LENGTH__+0x8e>
 48a:	88 0f       	add	r24, r24
 48c:	99 1f       	adc	r25, r25
 48e:	0a 94       	dec	r0
 490:	e2 f7       	brpl	.-8      	; 0x48a <__EEPROM_REGION_LENGTH__+0x8a>
 492:	80 95       	com	r24
 494:	82 23       	and	r24, r18
 496:	85 b9       	out	0x05, r24	; 5
	
	// Pøípadné 0 posílané do registrù se zase zahsnout (pošle se 1)
	for (int i = 0; i < 3; i++)
 498:	20 e0       	ldi	r18, 0x00	; 0
 49a:	30 e0       	ldi	r19, 0x00	; 0
 49c:	12 c0       	rjmp	.+36     	; 0x4c2 <__EEPROM_REGION_LENGTH__+0xc2>
	{
		PORTB |= 1 << VstupyRegistru[i];
 49e:	45 b1       	in	r20, 0x05	; 5
 4a0:	f9 01       	movw	r30, r18
 4a2:	ee 0f       	add	r30, r30
 4a4:	ff 1f       	adc	r31, r31
 4a6:	e8 5e       	subi	r30, 0xE8	; 232
 4a8:	fe 4f       	sbci	r31, 0xFE	; 254
 4aa:	81 e0       	ldi	r24, 0x01	; 1
 4ac:	90 e0       	ldi	r25, 0x00	; 0
 4ae:	00 80       	ld	r0, Z
 4b0:	02 c0       	rjmp	.+4      	; 0x4b6 <__EEPROM_REGION_LENGTH__+0xb6>
 4b2:	88 0f       	add	r24, r24
 4b4:	99 1f       	adc	r25, r25
 4b6:	0a 94       	dec	r0
 4b8:	e2 f7       	brpl	.-8      	; 0x4b2 <__EEPROM_REGION_LENGTH__+0xb2>
 4ba:	84 2b       	or	r24, r20
 4bc:	85 b9       	out	0x05, r24	; 5
	// Hodiny posunou registr
	PORTB |= 1 << HodinyRegistru;
	PORTB &= 255 - (1 << HodinyRegistru);
	
	// Pøípadné 0 posílané do registrù se zase zahsnout (pošle se 1)
	for (int i = 0; i < 3; i++)
 4be:	2f 5f       	subi	r18, 0xFF	; 255
 4c0:	3f 4f       	sbci	r19, 0xFF	; 255
 4c2:	23 30       	cpi	r18, 0x03	; 3
 4c4:	31 05       	cpc	r19, r1
 4c6:	5c f3       	brlt	.-42     	; 0x49e <__EEPROM_REGION_LENGTH__+0x9e>
	{
		PORTB |= 1 << VstupyRegistru[i];
	}

	// Zmìna hodnot pomocných promìnných pro buffer a KontinuituRegistru
	KontinuitaRegistru += 1;
 4c8:	80 91 26 01 	lds	r24, 0x0126	; 0x800126 <KontinuitaRegistru>
 4cc:	90 91 27 01 	lds	r25, 0x0127	; 0x800127 <KontinuitaRegistru+0x1>
 4d0:	01 96       	adiw	r24, 0x01	; 1
 4d2:	90 93 27 01 	sts	0x0127, r25	; 0x800127 <KontinuitaRegistru+0x1>
 4d6:	80 93 26 01 	sts	0x0126, r24	; 0x800126 <KontinuitaRegistru>
	if (KontinuitaRegistru == 24)
 4da:	48 97       	sbiw	r24, 0x18	; 24
 4dc:	21 f4       	brne	.+8      	; 0x4e6 <__EEPROM_REGION_LENGTH__+0xe6>
	{
		KontinuitaRegistru = 0;
 4de:	10 92 27 01 	sts	0x0127, r1	; 0x800127 <KontinuitaRegistru+0x1>
 4e2:	10 92 26 01 	sts	0x0126, r1	; 0x800126 <KontinuitaRegistru>
	}
	CisloBarvy += 1;
 4e6:	80 91 04 01 	lds	r24, 0x0104	; 0x800104 <CisloBarvy>
 4ea:	90 91 05 01 	lds	r25, 0x0105	; 0x800105 <CisloBarvy+0x1>
 4ee:	01 96       	adiw	r24, 0x01	; 1
 4f0:	90 93 05 01 	sts	0x0105, r25	; 0x800105 <CisloBarvy+0x1>
 4f4:	80 93 04 01 	sts	0x0104, r24	; 0x800104 <CisloBarvy>
	if (CisloBarvy == 3)
 4f8:	03 97       	sbiw	r24, 0x03	; 3
 4fa:	99 f4       	brne	.+38     	; 0x522 <__EEPROM_REGION_LENGTH__+0x122>
	{
		CisloBarvy = 0;
 4fc:	10 92 05 01 	sts	0x0105, r1	; 0x800105 <CisloBarvy+0x1>
 500:	10 92 04 01 	sts	0x0104, r1	; 0x800104 <CisloBarvy>
		CisloSloupce += 1;
 504:	80 91 02 01 	lds	r24, 0x0102	; 0x800102 <CisloSloupce>
 508:	90 91 03 01 	lds	r25, 0x0103	; 0x800103 <CisloSloupce+0x1>
 50c:	01 96       	adiw	r24, 0x01	; 1
 50e:	90 93 03 01 	sts	0x0103, r25	; 0x800103 <CisloSloupce+0x1>
 512:	80 93 02 01 	sts	0x0102, r24	; 0x800102 <CisloSloupce>
		if (CisloSloupce == 8)
 516:	08 97       	sbiw	r24, 0x08	; 8
 518:	21 f4       	brne	.+8      	; 0x522 <__EEPROM_REGION_LENGTH__+0x122>
		{
			CisloSloupce = 0;
 51a:	10 92 03 01 	sts	0x0103, r1	; 0x800103 <CisloSloupce+0x1>
 51e:	10 92 02 01 	sts	0x0102, r1	; 0x800102 <CisloSloupce>
 522:	08 95       	ret

00000524 <ZhasnutiRadku>:
	}
}

void ZhasnutiRadku()
{
	for (int i = 0; i < 8; i++)
 524:	20 e0       	ldi	r18, 0x00	; 0
 526:	30 e0       	ldi	r19, 0x00	; 0
 528:	13 c0       	rjmp	.+38     	; 0x550 <ZhasnutiRadku+0x2c>
	{
		PORTD &= 255 - (1 << Radky[i]);
 52a:	4b b1       	in	r20, 0x0b	; 11
 52c:	f9 01       	movw	r30, r18
 52e:	ee 0f       	add	r30, r30
 530:	ff 1f       	adc	r31, r31
 532:	e8 5f       	subi	r30, 0xF8	; 248
 534:	fe 4f       	sbci	r31, 0xFE	; 254
 536:	81 e0       	ldi	r24, 0x01	; 1
 538:	90 e0       	ldi	r25, 0x00	; 0
 53a:	00 80       	ld	r0, Z
 53c:	02 c0       	rjmp	.+4      	; 0x542 <ZhasnutiRadku+0x1e>
 53e:	88 0f       	add	r24, r24
 540:	99 1f       	adc	r25, r25
 542:	0a 94       	dec	r0
 544:	e2 f7       	brpl	.-8      	; 0x53e <ZhasnutiRadku+0x1a>
 546:	80 95       	com	r24
 548:	84 23       	and	r24, r20
 54a:	8b b9       	out	0x0b, r24	; 11
	}
}

void ZhasnutiRadku()
{
	for (int i = 0; i < 8; i++)
 54c:	2f 5f       	subi	r18, 0xFF	; 255
 54e:	3f 4f       	sbci	r19, 0xFF	; 255
 550:	28 30       	cpi	r18, 0x08	; 8
 552:	31 05       	cpc	r19, r1
 554:	54 f3       	brlt	.-44     	; 0x52a <ZhasnutiRadku+0x6>
	{
		PORTD &= 255 - (1 << Radky[i]);
	}
}
 556:	08 95       	ret

00000558 <RozsviceniRadkuDleBufferu>:

void RozsviceniRadkuDleBufferu()
{
	for (int i = 0; i < 8; i++)
 558:	20 e0       	ldi	r18, 0x00	; 0
 55a:	30 e0       	ldi	r19, 0x00	; 0
 55c:	48 c0       	rjmp	.+144    	; 0x5ee <RozsviceniRadkuDleBufferu+0x96>
	{
		if (Buffer[i][CisloSloupce][CisloBarvy])
 55e:	e0 91 02 01 	lds	r30, 0x0102	; 0x800102 <CisloSloupce>
 562:	f0 91 03 01 	lds	r31, 0x0103	; 0x800103 <CisloSloupce+0x1>
 566:	cf 01       	movw	r24, r30
 568:	88 0f       	add	r24, r24
 56a:	99 1f       	adc	r25, r25
 56c:	e8 0f       	add	r30, r24
 56e:	f9 1f       	adc	r31, r25
 570:	c9 01       	movw	r24, r18
 572:	88 0f       	add	r24, r24
 574:	99 1f       	adc	r25, r25
 576:	82 0f       	add	r24, r18
 578:	93 1f       	adc	r25, r19
 57a:	88 0f       	add	r24, r24
 57c:	99 1f       	adc	r25, r25
 57e:	88 0f       	add	r24, r24
 580:	99 1f       	adc	r25, r25
 582:	88 0f       	add	r24, r24
 584:	99 1f       	adc	r25, r25
 586:	e8 0f       	add	r30, r24
 588:	f9 1f       	adc	r31, r25
 58a:	80 91 04 01 	lds	r24, 0x0104	; 0x800104 <CisloBarvy>
 58e:	90 91 05 01 	lds	r25, 0x0105	; 0x800105 <CisloBarvy+0x1>
 592:	e8 0f       	add	r30, r24
 594:	f9 1f       	adc	r31, r25
 596:	ee 0f       	add	r30, r30
 598:	ff 1f       	adc	r31, r31
 59a:	e5 5d       	subi	r30, 0xD5	; 213
 59c:	fe 4f       	sbci	r31, 0xFE	; 254
 59e:	80 81       	ld	r24, Z
 5a0:	91 81       	ldd	r25, Z+1	; 0x01
 5a2:	89 2b       	or	r24, r25
 5a4:	89 f0       	breq	.+34     	; 0x5c8 <RozsviceniRadkuDleBufferu+0x70>
		{
			PORTD |= 1 << Radky[i];
 5a6:	4b b1       	in	r20, 0x0b	; 11
 5a8:	f9 01       	movw	r30, r18
 5aa:	ee 0f       	add	r30, r30
 5ac:	ff 1f       	adc	r31, r31
 5ae:	e8 5f       	subi	r30, 0xF8	; 248
 5b0:	fe 4f       	sbci	r31, 0xFE	; 254
 5b2:	81 e0       	ldi	r24, 0x01	; 1
 5b4:	90 e0       	ldi	r25, 0x00	; 0
 5b6:	00 80       	ld	r0, Z
 5b8:	02 c0       	rjmp	.+4      	; 0x5be <RozsviceniRadkuDleBufferu+0x66>
 5ba:	88 0f       	add	r24, r24
 5bc:	99 1f       	adc	r25, r25
 5be:	0a 94       	dec	r0
 5c0:	e2 f7       	brpl	.-8      	; 0x5ba <RozsviceniRadkuDleBufferu+0x62>
 5c2:	84 2b       	or	r24, r20
 5c4:	8b b9       	out	0x0b, r24	; 11
 5c6:	11 c0       	rjmp	.+34     	; 0x5ea <RozsviceniRadkuDleBufferu+0x92>
		}
		else
		{
			PORTD &= 255 - (1 << Radky[i]);
 5c8:	4b b1       	in	r20, 0x0b	; 11
 5ca:	f9 01       	movw	r30, r18
 5cc:	ee 0f       	add	r30, r30
 5ce:	ff 1f       	adc	r31, r31
 5d0:	e8 5f       	subi	r30, 0xF8	; 248
 5d2:	fe 4f       	sbci	r31, 0xFE	; 254
 5d4:	81 e0       	ldi	r24, 0x01	; 1
 5d6:	90 e0       	ldi	r25, 0x00	; 0
 5d8:	00 80       	ld	r0, Z
 5da:	02 c0       	rjmp	.+4      	; 0x5e0 <RozsviceniRadkuDleBufferu+0x88>
 5dc:	88 0f       	add	r24, r24
 5de:	99 1f       	adc	r25, r25
 5e0:	0a 94       	dec	r0
 5e2:	e2 f7       	brpl	.-8      	; 0x5dc <RozsviceniRadkuDleBufferu+0x84>
 5e4:	80 95       	com	r24
 5e6:	84 23       	and	r24, r20
 5e8:	8b b9       	out	0x0b, r24	; 11
	}
}

void RozsviceniRadkuDleBufferu()
{
	for (int i = 0; i < 8; i++)
 5ea:	2f 5f       	subi	r18, 0xFF	; 255
 5ec:	3f 4f       	sbci	r19, 0xFF	; 255
 5ee:	28 30       	cpi	r18, 0x08	; 8
 5f0:	31 05       	cpc	r19, r1
 5f2:	0c f4       	brge	.+2      	; 0x5f6 <RozsviceniRadkuDleBufferu+0x9e>
 5f4:	b4 cf       	rjmp	.-152    	; 0x55e <RozsviceniRadkuDleBufferu+0x6>
		else
		{
			PORTD &= 255 - (1 << Radky[i]);
		}
	}
}
 5f6:	08 95       	ret

000005f8 <setup>:

void setup()
{
	// set received/requested callbacks
	I2C_setCallbacks(I2C_received, I2C_requested);
 5f8:	6f e5       	ldi	r22, 0x5F	; 95
 5fa:	71 e0       	ldi	r23, 0x01	; 1
 5fc:	8b eb       	ldi	r24, 0xBB	; 187
 5fe:	90 e0       	ldi	r25, 0x00	; 0
 600:	0e 94 53 00 	call	0xa6	; 0xa6 <I2C_setCallbacks>

	// init I2C
	I2C_init(I2C_ADDR);
 604:	80 e1       	ldi	r24, 0x10	; 16
 606:	0e 94 5c 00 	call	0xb8	; 0xb8 <I2C_init>
	
	DDRB = 0xFF;
 60a:	8f ef       	ldi	r24, 0xFF	; 255
 60c:	84 b9       	out	0x04, r24	; 4
	DDRC = 0x00;
 60e:	17 b8       	out	0x07, r1	; 7
	DDRD = 0b11111111;
 610:	8a b9       	out	0x0a, r24	; 10
	
	PORTC |= (1 << PINC4);
 612:	88 b1       	in	r24, 0x08	; 8
 614:	80 61       	ori	r24, 0x10	; 16
 616:	88 b9       	out	0x08, r24	; 8
	PORTC |= (1 << PINC5);
 618:	88 b1       	in	r24, 0x08	; 8
 61a:	80 62       	ori	r24, 0x20	; 32
 61c:	88 b9       	out	0x08, r24	; 8
 61e:	08 95       	ret

00000620 <main>:
}

int main()
{
	setup();
 620:	0e 94 fc 02 	call	0x5f8	; 0x5f8 <setup>
	InicializaceRegistru();
 624:	0e 94 60 01 	call	0x2c0	; 0x2c0 <InicializaceRegistru>
	VynulovaniBufferu();
 628:	0e 94 ca 01 	call	0x394	; 0x394 <VynulovaniBufferu>
	Buffer[0][0][0] = 1;
 62c:	81 e0       	ldi	r24, 0x01	; 1
 62e:	90 e0       	ldi	r25, 0x00	; 0
 630:	90 93 2c 01 	sts	0x012C, r25	; 0x80012c <Buffer+0x1>
 634:	80 93 2b 01 	sts	0x012B, r24	; 0x80012b <Buffer>
	while (1)
	{
		cli();
 638:	f8 94       	cli
		ZhasnutiRadku();
 63a:	0e 94 92 02 	call	0x524	; 0x524 <ZhasnutiRadku>
		PosunRegistru();
 63e:	0e 94 ff 01 	call	0x3fe	; 0x3fe <PosunRegistru>
		RozsviceniRadkuDleBufferu();
 642:	0e 94 ac 02 	call	0x558	; 0x558 <RozsviceniRadkuDleBufferu>
		sei();
 646:	78 94       	sei
 648:	f7 cf       	rjmp	.-18     	; 0x638 <main+0x18>

0000064a <_exit>:
 64a:	f8 94       	cli

0000064c <__stop_program>:
 64c:	ff cf       	rjmp	.-2      	; 0x64c <__stop_program>
